target datalayout = "e-m:e-p270:32:32-p271:32:32-p272:64:64-i64:64-i128:128-f80:128-n8:16:32:64-S128"
target triple = "x86_64-pc-linux-gnu"

%struct.Vec_Str_t_ = type { i32, i32, ptr }
%struct.Wlc_Ntk_t_ = type { ptr, ptr, %struct.Vec_Int_t_, %struct.Vec_Int_t_, %struct.Vec_Int_t_, %struct.Vec_Int_t_, %struct.Vec_Int_t_, %struct.Vec_Int_t_, ptr, ptr, ptr, [60 x i32], [60 x i32], i32, i32, i32, i32, i32, ptr, i32, i32, ptr, ptr, ptr, ptr, ptr, %struct.Vec_Int_t_, %struct.Vec_Int_t_, i32, %struct.Vec_Int_t_, %struct.Vec_Int_t_, %struct.Vec_Int_t_, %struct.Vec_Int_t_, %struct.Vec_Int_t_, %struct.Vec_Int_t_ }
%struct.Vec_Int_t_ = type { i32, i32, ptr }
%struct.Abc_Cex_t_ = type { i32, i32, i32, i32, i32, [0 x i32] }

@.str = private unnamed_addr constant [46 x i8] c"Cannot find \22%s\22 among nodes of the network.\0A\00", align 1
@.str.1 = private unnamed_addr constant [55 x i8] c"Cannot find \22%s\22 among primary inputs of the network.\0A\00", align 1
@.str.2 = private unnamed_addr constant [13 x i8] c"((%s %s%s))\0A\00", align 1
@.str.3 = private unnamed_addr constant [3 x i8] c"#x\00", align 1
@.str.4 = private unnamed_addr constant [3 x i8] c"#b\00", align 1
@.str.5 = private unnamed_addr constant [1 x i8] zeroinitializer, align 1

; Function Attrs: inlinehint nounwind uwtable
define internal void @Vec_StrFree(ptr noundef %0) #2 {
  %2 = alloca ptr, align 8
  store ptr %0, ptr %2, align 8, !tbaa !15
  %3 = load ptr, ptr %2, align 8, !tbaa !15
  %4 = getelementptr inbounds nuw %struct.Vec_Str_t_, ptr %3, i32 0, i32 2
  %5 = load ptr, ptr %4, align 8, !tbaa !22
  %6 = icmp ne ptr %5, null
  br i1 %6, label %7, label %13

7:                                                ; preds = %1
  %8 = load ptr, ptr %2, align 8, !tbaa !15
  %9 = getelementptr inbounds nuw %struct.Vec_Str_t_, ptr %8, i32 0, i32 2
  %10 = load ptr, ptr %9, align 8, !tbaa !22
  call void @free(ptr noundef %10) #10
  %11 = load ptr, ptr %2, align 8, !tbaa !15
  %12 = getelementptr inbounds nuw %struct.Vec_Str_t_, ptr %11, i32 0, i32 2
  store ptr null, ptr %12, align 8, !tbaa !22
  br label %14

13:                                               ; preds = %1
  br label %14

14:                                               ; preds = %13, %7
  %15 = load ptr, ptr %2, align 8, !tbaa !15
  %16 = icmp ne ptr %15, null
  br i1 %16, label %17, label %19

17:                                               ; preds = %14
  %18 = load ptr, ptr %2, align 8, !tbaa !15
  call void @free(ptr noundef %18) #10
  store ptr null, ptr %2, align 8, !tbaa !15
  br label %20

19:                                               ; preds = %14
  br label %20

20:                                               ; preds = %19, %17
  ret void
}

; Function Attrs: inlinehint nounwind uwtable
define internal ptr @Vec_StrArray(ptr noundef %0) #2 {
  %2 = alloca ptr, align 8
  store ptr %0, ptr %2, align 8, !tbaa !15
  %3 = load ptr, ptr %2, align 8, !tbaa !15
  %4 = getelementptr inbounds nuw %struct.Vec_Str_t_, ptr %3, i32 0, i32 2
  %5 = load ptr, ptr %4, align 8, !tbaa !22
  ret ptr %5
}

; Function Attrs: inlinehint nounwind uwtable
define internal i32 @Vec_IntEntry(ptr noundef %0, i32 noundef %1) #2 {
  %3 = alloca ptr, align 8
  %4 = alloca i32, align 4
  store ptr %0, ptr %3, align 8, !tbaa !39
  store i32 %1, ptr %4, align 4, !tbaa !8
  %5 = load ptr, ptr %3, align 8, !tbaa !39
  %6 = getelementptr inbounds nuw %struct.Vec_Int_t_, ptr %5, i32 0, i32 2
  %7 = load ptr, ptr %6, align 8, !tbaa !41
  %8 = load i32, ptr %4, align 4, !tbaa !8
  %9 = sext i32 %8 to i64
  %10 = getelementptr inbounds i32, ptr %7, i64 %9
  %11 = load i32, ptr %10, align 4, !tbaa !8
  ret i32 %11
}

; Function Attrs: inlinehint nounwind uwtable
define internal i32 @Vec_IntSize(ptr noundef %0) #2 {
  %2 = alloca ptr, align 8
  store ptr %0, ptr %2, align 8, !tbaa !39
  %3 = load ptr, ptr %2, align 8, !tbaa !39
  %4 = getelementptr inbounds nuw %struct.Vec_Int_t_, ptr %3, i32 0, i32 1
  %5 = load i32, ptr %4, align 4, !tbaa !40
  ret i32 %5
}

; Function Attrs: nounwind uwtable
define void @Wlc_NtkReport(ptr noundef %0, ptr noundef %1, ptr noundef %2, i32 noundef %3) #0 {
  %5 = alloca ptr, align 8
  %6 = alloca ptr, align 8
  %7 = alloca ptr, align 8
  %8 = alloca i32, align 4
  %9 = alloca ptr, align 8
  %10 = alloca i32, align 4
  %11 = alloca i32, align 4
  %12 = alloca i32, align 4
  %13 = alloca i32, align 4
  %14 = alloca i32, align 4
  %15 = alloca i32, align 4
  store ptr %0, ptr %5, align 8, !tbaa !25
  store ptr %1, ptr %6, align 8, !tbaa !27
  store ptr %2, ptr %7, align 8, !tbaa !3
  store i32 %3, ptr %8, align 4, !tbaa !8
  call void @llvm.lifetime.start.p0(i64 8, ptr %9) #10
  call void @llvm.lifetime.start.p0(i64 4, ptr %10) #10
  call void @llvm.lifetime.start.p0(i64 4, ptr %11) #10
  call void @llvm.lifetime.start.p0(i64 4, ptr %12) #10
  call void @llvm.lifetime.start.p0(i64 4, ptr %13) #10
  store i32 -1, ptr %13, align 4, !tbaa !8
  call void @llvm.lifetime.start.p0(i64 4, ptr %14) #10
  store i32 -1, ptr %14, align 4, !tbaa !8
  %16 = load ptr, ptr %5, align 8, !tbaa !25
  %17 = getelementptr inbounds nuw %struct.Wlc_Ntk_t_, ptr %16, i32 0, i32 25
  %18 = load ptr, ptr %17, align 8, !tbaa !29
  %19 = load ptr, ptr %7, align 8, !tbaa !3
  %20 = call i32 @Abc_NamStrFind(ptr noundef %18, ptr noundef %19)
  store i32 %20, ptr %11, align 4, !tbaa !8
  %21 = load i32, ptr %11, align 4, !tbaa !8
  %22 = icmp sle i32 %21, 0
  br i1 %22, label %23, label %26

23:                                               ; preds = %4
  %24 = load ptr, ptr %7, align 8, !tbaa !3
  %25 = call i32 (ptr, ...) @printf(ptr noundef @.str, ptr noundef %24)
  store i32 1, ptr %15, align 4
  br label %93

26:                                               ; preds = %4
  store i32 0, ptr %10, align 4, !tbaa !8
  br label %27

27:                                               ; preds = %59, %26
  %28 = load i32, ptr %10, align 4, !tbaa !8
  %29 = add nsw i32 %28, 2
  %30 = load ptr, ptr %5, align 8, !tbaa !25
  %31 = getelementptr inbounds nuw %struct.Wlc_Ntk_t_, ptr %30, i32 0, i32 27
  %32 = call i32 @Vec_IntSize(ptr noundef %31)
  %33 = icmp slt i32 %29, %32
  br i1 %33, label %34, label %51

34:                                               ; preds = %27
  %35 = load ptr, ptr %5, align 8, !tbaa !25
  %36 = getelementptr inbounds nuw %struct.Wlc_Ntk_t_, ptr %35, i32 0, i32 27
  %37 = load i32, ptr %10, align 4, !tbaa !8
  %38 = call i32 @Vec_IntEntry(ptr noundef %36, i32 noundef %37)
  store i32 %38, ptr %12, align 4, !tbaa !8
  br i1 true, label %39, label %51

39:                                               ; preds = %34
  %40 = load ptr, ptr %5, align 8, !tbaa !25
  %41 = getelementptr inbounds nuw %struct.Wlc_Ntk_t_, ptr %40, i32 0, i32 27
  %42 = load i32, ptr %10, align 4, !tbaa !8
  %43 = add nsw i32 %42, 1
  %44 = call i32 @Vec_IntEntry(ptr noundef %41, i32 noundef %43)
  store i32 %44, ptr %13, align 4, !tbaa !8
  br i1 true, label %45, label %51

45:                                               ; preds = %39
  %46 = load ptr, ptr %5, align 8, !tbaa !25
  %47 = getelementptr inbounds nuw %struct.Wlc_Ntk_t_, ptr %46, i32 0, i32 27
  %48 = load i32, ptr %10, align 4, !tbaa !8
  %49 = add nsw i32 %48, 2
  %50 = call i32 @Vec_IntEntry(ptr noundef %47, i32 noundef %49)
  store i32 %50, ptr %14, align 4, !tbaa !8
  br label %51

51:                                               ; preds = %45, %39, %34, %27
  %52 = phi i1 [ false, %39 ], [ false, %34 ], [ false, %27 ], [ true, %45 ]
  br i1 %52, label %53, label %62

53:                                               ; preds = %51
  %54 = load i32, ptr %12, align 4, !tbaa !8
  %55 = load i32, ptr %11, align 4, !tbaa !8
  %56 = icmp eq i32 %54, %55
  br i1 %56, label %57, label %58

57:                                               ; preds = %53
  br label %62

58:                                               ; preds = %53
  br label %59

59:                                               ; preds = %58
  %60 = load i32, ptr %10, align 4, !tbaa !8
  %61 = add nsw i32 %60, 3
  store i32 %61, ptr %10, align 4, !tbaa !8
  br label %27, !llvm.loop !38

62:                                               ; preds = %57, %51
  %63 = load i32, ptr %10, align 4, !tbaa !8
  %64 = load ptr, ptr %5, align 8, !tbaa !25
  %65 = getelementptr inbounds nuw %struct.Wlc_Ntk_t_, ptr %64, i32 0, i32 27
  %66 = call i32 @Vec_IntSize(ptr noundef %65)
  %67 = icmp eq i32 %63, %66
  br i1 %67, label %68, label %71

68:                                               ; preds = %62
  %69 = load ptr, ptr %7, align 8, !tbaa !3
  %70 = call i32 (ptr, ...) @printf(ptr noundef @.str.1, ptr noundef %69)
  store i32 1, ptr %15, align 4
  br label %93

71:                                               ; preds = %62
  %72 = load ptr, ptr %6, align 8, !tbaa !27
  %73 = getelementptr inbounds nuw %struct.Abc_Cex_t_, ptr %72, i32 0, i32 5
  %74 = getelementptr inbounds [0 x i32], ptr %73, i64 0, i64 0
  %75 = load i32, ptr %13, align 4, !tbaa !8
  %76 = load i32, ptr %14, align 4, !tbaa !8
  %77 = load i32, ptr %8, align 4, !tbaa !8
  %78 = call ptr @Wlc_ConvertToRadix(ptr noundef %74, i32 noundef %75, i32 noundef %76, i32 noundef %77)
  store ptr %78, ptr %9, align 8, !tbaa !15
  %79 = load ptr, ptr %7, align 8, !tbaa !3
  %80 = load i32, ptr %8, align 4, !tbaa !8
  %81 = icmp eq i32 %80, 16
  br i1 %81, label %82, label %83

82:                                               ; preds = %71
  br label %87

83:                                               ; preds = %71
  %84 = load i32, ptr %8, align 4, !tbaa !8
  %85 = icmp eq i32 %84, 2
  %86 = select i1 %85, ptr @.str.4, ptr @.str.5
  br label %87

87:                                               ; preds = %83, %82
  %88 = phi ptr [ @.str.3, %82 ], [ %86, %83 ]
  %89 = load ptr, ptr %9, align 8, !tbaa !15
  %90 = call ptr @Vec_StrArray(ptr noundef %89)
  %91 = call i32 (ptr, ...) @printf(ptr noundef @.str.2, ptr noundef %79, ptr noundef %88, ptr noundef %90)
  %92 = load ptr, ptr %9, align 8, !tbaa !15
  call void @Vec_StrFree(ptr noundef %92)
  store i32 0, ptr %15, align 4
  br label %93

93:                                               ; preds = %87, %68, %23
  call void @llvm.lifetime.end.p0(i64 4, ptr %14) #10
  call void @llvm.lifetime.end.p0(i64 4, ptr %13) #10
  call void @llvm.lifetime.end.p0(i64 4, ptr %12) #10
  call void @llvm.lifetime.end.p0(i64 4, ptr %11) #10
  call void @llvm.lifetime.end.p0(i64 4, ptr %10) #10
  call void @llvm.lifetime.end.p0(i64 8, ptr %9) #10
  %94 = load i32, ptr %15, align 4
  switch i32 %94, label %96 [
    i32 0, label %95
    i32 1, label %95
  ]

95:                                               ; preds = %93, %93
  ret void

96:                                               ; preds = %93
  unreachable
}