; Function Attrs: nounwind uwtable
define void @Wlc_NtkReport(ptr noundef readonly captures(none) %0, ptr noundef readonly captures(none) %1, ptr noundef %2, i32 noundef %3) local_unnamed_addr #2 {
  %5 = getelementptr inbounds nuw i8, ptr %0, i64 688
  %6 = load ptr, ptr %5, align 8, !tbaa !20
  %7 = tail call i32 @Abc_NamStrFind(ptr noundef %6, ptr noundef %2) #17
  %8 = icmp slt i32 %7, 1
  br i1 %8, label %12, label %.preheader

.preheader:                                       ; preds = %4
  %9 = getelementptr i8, ptr %0, i64 716
  %.val31 = load i32, ptr %9, align 4, !tbaa !30
  %10 = icmp sgt i32 %.val31, 2
  br i1 %10, label %.lr.ph, label %.critedge

.lr.ph:                                           ; preds = %.preheader
  %11 = getelementptr i8, ptr %0, i64 720
  %.val33 = load ptr, ptr %11, align 8, !tbaa !31
  br label %14

12:                                               ; preds = %4
  %13 = tail call i32 (ptr, ...) @printf(ptr noundef nonnull dereferenceable(1) @.str, ptr noundef %2)
  br label %44

14:                                               ; preds = %.lr.ph, %18
  %indvars.iv = phi i64 [ 0, %.lr.ph ], [ %indvars.iv.next, %18 ]
  %15 = getelementptr inbounds nuw i32, ptr %.val33, i64 %indvars.iv
  %16 = load i32, ptr %15, align 4, !tbaa !15
  %17 = icmp eq i32 %16, %7
  br i1 %17, label %.critedge.sink.split, label %18

18:                                               ; preds = %14
  %indvars.iv.next = add nuw nsw i64 %indvars.iv, 3
  %19 = trunc i64 %indvars.iv to i32
  %20 = add i32 %19, 5
  %21 = icmp slt i32 %20, %.val31
  br i1 %21, label %14, label %.critedge.sink.split, !llvm.loop !32

.critedge.sink.split:                             ; preds = %14, %18
  %indvars.iv.lcssa66.sink71 = phi i64 [ %indvars.iv.next, %18 ], [ %indvars.iv, %14 ]
  %22 = add nuw nsw i64 %indvars.iv, 2
  %23 = trunc nuw i64 %indvars.iv.lcssa66.sink71 to i32
  %24 = and i64 %indvars.iv, 4294967295
  %25 = getelementptr inbounds nuw i32, ptr %.val33, i64 %24
  %26 = getelementptr inbounds nuw i8, ptr %25, i64 4
  %27 = load i32, ptr %26, align 4, !tbaa !15
  %28 = and i64 %22, 4294967295
  %29 = getelementptr inbounds nuw i32, ptr %.val33, i64 %28
  %30 = load i32, ptr %29, align 4, !tbaa !15
  br label %.critedge

.critedge:                                        ; preds = %.critedge.sink.split, %.preheader
  %.028.lcssa = phi i32 [ 0, %.preheader ], [ %23, %.critedge.sink.split ]
  %.127 = phi i32 [ -1, %.preheader ], [ %27, %.critedge.sink.split ]
  %.1 = phi i32 [ -1, %.preheader ], [ %30, %.critedge.sink.split ]
  %31 = icmp eq i32 %.028.lcssa, %.val31
  br i1 %31, label %32, label %34

32:                                               ; preds = %.critedge
  %33 = tail call i32 (ptr, ...) @printf(ptr noundef nonnull dereferenceable(1) @.str.1, ptr noundef %2)
  br label %44

34:                                               ; preds = %.critedge
  %35 = getelementptr inbounds nuw i8, ptr %1, i64 20
  %36 = tail call ptr @Wlc_ConvertToRadix(ptr noundef nonnull %35, i32 noundef %.127, i32 noundef %.1, i32 noundef %3)
  %37 = icmp eq i32 %3, 16
  %38 = icmp eq i32 %3, 2
  %39 = select i1 %38, ptr @.str.4, ptr @.str.5
  %40 = select i1 %37, ptr @.str.3, ptr %39
  %41 = getelementptr i8, ptr %36, i64 8
  %.val = load ptr, ptr %41, align 8, !tbaa !13
  %42 = tail call i32 (ptr, ...) @printf(ptr noundef nonnull dereferenceable(1) @.str.2, ptr noundef %2, ptr noundef nonnull %40, ptr noundef %.val)
  %.not.i = icmp eq ptr %.val, null
  br i1 %.not.i, label %Vec_StrFree.exit, label %43

43:                                               ; preds = %34
  tail call void @free(ptr noundef nonnull %.val) #17
  br label %Vec_StrFree.exit

Vec_StrFree.exit:                                 ; preds = %34, %43
  tail call void @free(ptr noundef nonnull %36) #17
  br label %44

44:                                               ; preds = %Vec_StrFree.exit, %32, %12
  ret void
}